; ModuleID = '52/1340.c'
source_filename = "52/1340.c"
target datalayout = "e-m:e-p270:32:32-p271:32:32-p272:64:64-i64:64-f80:128-n8:16:32:64-S128"
target triple = "x86_64-pc-linux-gnu"

@.str = private unnamed_addr constant [6 x i8] c"%d %d\00", align 1
@.str.1 = private unnamed_addr constant [3 x i8] c"%d\00", align 1
@.str.2 = private unnamed_addr constant [2 x i8] c" \00", align 1

; Function Attrs: noinline nounwind uwtable
define dso_local void @main() #0 {
  %1 = alloca i32, align 4
  %2 = alloca i32, align 4
  %3 = alloca i32, align 4
  %4 = alloca i32*, align 8
  %5 = call i32 (i8*, ...) @__isoc99_scanf(i8* getelementptr inbounds ([6 x i8], [6 x i8]* @.str, i64 0, i64 0), i32* %2, i32* %3)
  %6 = load i32, i32* %2, align 4
  %7 = sext i32 %6 to i64
  %8 = mul i64 4, %7
  %9 = call noalias i8* @malloc(i64 %8) #3
  %10 = bitcast i8* %9 to i32*
  store i32* %10, i32** %4, align 8
  store i32 0, i32* %1, align 4
  br label %11

11:                                               ; preds = %21, %0
  %12 = load i32, i32* %1, align 4
  %13 = load i32, i32* %2, align 4
  %14 = icmp slt i32 %12, %13
  br i1 %14, label %15, label %24

15:                                               ; preds = %11
  %16 = load i32*, i32** %4, align 8
  %17 = load i32, i32* %1, align 4
  %18 = sext i32 %17 to i64
  %19 = getelementptr inbounds i32, i32* %16, i64 %18
  %20 = call i32 (i8*, ...) @__isoc99_scanf(i8* getelementptr inbounds ([3 x i8], [3 x i8]* @.str.1, i64 0, i64 0), i32* %19)
  br label %21

21:                                               ; preds = %15
  %22 = load i32, i32* %1, align 4
  %23 = add nsw i32 %22, 1
  store i32 %23, i32* %1, align 4
  br label %11

24:                                               ; preds = %11
  %25 = load i32, i32* %2, align 4
  %26 = load i32, i32* %3, align 4
  %27 = sub nsw i32 %25, %26
  store i32 %27, i32* %1, align 4
  br label %28

28:                                               ; preds = %55, %24
  %29 = load i32, i32* %1, align 4
  %30 = load i32, i32* %2, align 4
  %31 = mul nsw i32 2, %30
  %32 = load i32, i32* %3, align 4
  %33 = sub nsw i32 %31, %32
  %34 = icmp slt i32 %29, %33
  br i1 %34, label %35, label %58

35:                                               ; preds = %28
  %36 = load i32*, i32** %4, align 8
  %37 = load i32, i32* %1, align 4
  %38 = load i32, i32* %2, align 4
  %39 = srem i32 %37, %38
  %40 = sext i32 %39 to i64
  %41 = getelementptr inbounds i32, i32* %36, i64 %40
  %42 = load i32, i32* %41, align 4
  %43 = call i32 (i8*, ...) @printf(i8* getelementptr inbounds ([3 x i8], [3 x i8]* @.str.1, i64 0, i64 0), i32 %42)
  %44 = load i32, i32* %1, align 4
  %45 = load i32, i32* %2, align 4
  %46 = mul nsw i32 2, %45
  %47 = load i32, i32* %3, align 4
  %48 = sub nsw i32 %46, %47
  %49 = sub nsw i32 %48, 1
  %50 = icmp eq i32 %44, %49
  br i1 %50, label %51, label %52

51:                                               ; preds = %35
  br label %58

52:                                               ; preds = %35
  %53 = call i32 (i8*, ...) @printf(i8* getelementptr inbounds ([2 x i8], [2 x i8]* @.str.2, i64 0, i64 0))
  br label %54

54:                                               ; preds = %52
  br label %55

55:                                               ; preds = %54
  %56 = load i32, i32* %1, align 4
  %57 = add nsw i32 %56, 1
  store i32 %57, i32* %1, align 4
  br label %28

58:                                               ; preds = %51, %28
  %59 = load i32*, i32** %4, align 8
  %60 = bitcast i32* %59 to i8*
  call void @free(i8* %60) #3
  ret void
}

declare dso_local i32 @__isoc99_scanf(i8*, ...) #1

; Function Attrs: nounwind
declare dso_local noalias i8* @malloc(i64) #2

declare dso_local i32 @printf(i8*, ...) #1

; Function Attrs: nounwind
declare dso_local void @free(i8*) #2


!llvm.module.flags = !{!0}
!llvm.ident = !{!1}

!0 = !{i32 1, !"wchar_size", i32 4}
!1 = !{!"clang version 10.0.0-4ubuntu1 "}
