; ModuleID = 'source-C-CXX/51/1340.c'
source_filename = "source-C-CXX/51/1340.c"
target datalayout = "e-m:e-p270:32:32-p271:32:32-p272:64:64-i64:64-f80:128-n8:16:32:64-S128"
target triple = "x86_64-pc-linux-gnu"

@.str = private unnamed_addr constant [6 x i8] c"%d %d\00", align 1
@.str.1 = private unnamed_addr constant [3 x i8] c"%d\00", align 1

; Function Attrs: nounwind sspstrong uwtable
define dso_local void @main() local_unnamed_addr #0 {
  %1 = alloca i32, align 4
  %2 = alloca i32, align 4
  %3 = bitcast i32* %1 to i8*
  call void @llvm.lifetime.start.p0i8(i64 4, i8* nonnull %3) #6
  %4 = bitcast i32* %2 to i8*
  call void @llvm.lifetime.start.p0i8(i64 4, i8* nonnull %4) #6
  %5 = call i32 (i8*, ...) @__isoc99_scanf(i8* getelementptr inbounds ([6 x i8], [6 x i8]* @.str, i64 0, i64 0), i32* nonnull %1, i32* nonnull %2)
  %6 = load i32, i32* %1, align 4, !tbaa !5
  %7 = sext i32 %6 to i64
  %8 = shl nsw i64 %7, 2
  %9 = call noalias align 16 i8* @malloc(i64 %8) #6
  %10 = bitcast i8* %9 to i32*
  %11 = icmp sgt i32 %6, 0
  br i1 %11, label %12, label %20

12:                                               ; preds = %0, %12
  %13 = phi i64 [ %16, %12 ], [ 0, %0 ]
  %14 = getelementptr inbounds i32, i32* %10, i64 %13
  %15 = call i32 (i8*, ...) @__isoc99_scanf(i8* getelementptr inbounds ([3 x i8], [3 x i8]* @.str.1, i64 0, i64 0), i32* %14)
  %16 = add nuw nsw i64 %13, 1
  %17 = load i32, i32* %1, align 4, !tbaa !5
  %18 = sext i32 %17 to i64
  %19 = icmp slt i64 %16, %18
  br i1 %19, label %12, label %20, !llvm.loop !9

20:                                               ; preds = %12, %0
  %21 = phi i32 [ %6, %0 ], [ %17, %12 ]
  %22 = shl nsw i32 %21, 1
  %23 = icmp slt i32 %21, %22
  br i1 %23, label %24, label %49

24:                                               ; preds = %20
  %25 = load i32, i32* %2, align 4, !tbaa !5
  %26 = sub nsw i32 %21, %25
  br label %27

27:                                               ; preds = %24, %41
  %28 = phi i32 [ %44, %41 ], [ %21, %24 ]
  %29 = phi i32 [ %43, %41 ], [ %26, %24 ]
  %30 = srem i32 %29, %28
  %31 = sext i32 %30 to i64
  %32 = getelementptr inbounds i32, i32* %10, i64 %31
  %33 = load i32, i32* %32, align 4, !tbaa !5
  %34 = call i32 (i8*, ...) @printf(i8* nonnull dereferenceable(1) getelementptr inbounds ([3 x i8], [3 x i8]* @.str.1, i64 0, i64 0), i32 %33)
  %35 = load i32, i32* %1, align 4, !tbaa !5
  %36 = shl nsw i32 %35, 1
  %37 = load i32, i32* %2, align 4, !tbaa !5
  %38 = xor i32 %37, -1
  %39 = add i32 %36, %38
  %40 = icmp eq i32 %29, %39
  br i1 %40, label %49, label %41

41:                                               ; preds = %27
  %42 = call i32 @putchar(i32 32)
  %43 = add nsw i32 %29, 1
  %44 = load i32, i32* %1, align 4, !tbaa !5
  %45 = shl nsw i32 %44, 1
  %46 = load i32, i32* %2, align 4, !tbaa !5
  %47 = sub nsw i32 %45, %46
  %48 = icmp slt i32 %43, %47
  br i1 %48, label %27, label %49, !llvm.loop !11

49:                                               ; preds = %41, %27, %20
  call void @free(i8* %9) #6
  call void @llvm.lifetime.end.p0i8(i64 4, i8* nonnull %4) #6
  call void @llvm.lifetime.end.p0i8(i64 4, i8* nonnull %3) #6
  ret void
}

; Function Attrs: argmemonly mustprogress nofree nosync nounwind willreturn
declare void @llvm.lifetime.start.p0i8(i64 immarg, i8* nocapture) #1

; Function Attrs: nofree nounwind
declare noundef i32 @__isoc99_scanf(i8* nocapture noundef readonly, ...) local_unnamed_addr #2

; Function Attrs: inaccessiblememonly mustprogress nofree nounwind willreturn
declare noalias noundef align 16 i8* @malloc(i64 noundef) local_unnamed_addr #3

; Function Attrs: nofree nounwind
declare noundef i32 @printf(i8* nocapture noundef readonly, ...) local_unnamed_addr #2

; Function Attrs: inaccessiblemem_or_argmemonly mustprogress nounwind willreturn
declare void @free(i8* nocapture noundef) local_unnamed_addr #4

; Function Attrs: argmemonly mustprogress nofree nosync nounwind willreturn
declare void @llvm.lifetime.end.p0i8(i64 immarg, i8* nocapture) #1

; Function Attrs: nofree nounwind
declare noundef i32 @putchar(i32 noundef) local_unnamed_addr #5


!llvm.module.flags = !{!0, !1, !2, !3}
!llvm.ident = !{!4}

!0 = !{i32 1, !"wchar_size", i32 4}
!1 = !{i32 7, !"PIC Level", i32 2}
!2 = !{i32 7, !"PIE Level", i32 2}
!3 = !{i32 7, !"uwtable", i32 1}
!4 = !{!"clang version 13.0.0"}
!5 = !{!6, !6, i64 0}
!6 = !{!"int", !7, i64 0}
!7 = !{!"omnipotent char", !8, i64 0}
!8 = !{!"Simple C/C++ TBAA"}
!9 = distinct !{!9, !10}
!10 = !{!"llvm.loop.mustprogress"}
!11 = distinct !{!11, !10}
